target datalayout = "e-m:e-p270:32:32-p271:32:32-p272:64:64-i64:64-i128:128-f80:128-n8:16:32:64-S128"
target triple = "x86_64-pc-linux-gnu"

%"class.icu_77::LocDataParser" = type { ptr, ptr, ptr, i16, ptr, ptr }
%struct.UParseError = type { i32, i32, [16 x i16], [16 x i16] }

; Function Attrs: inlinehint mustprogress nounwind uwtable
define internal noundef signext i8 @_ZL9U_FAILURE10UErrorCode(i32 noundef %0) #4 {
  %2 = alloca i32, align 4
  store i32 %0, ptr %2, align 4, !tbaa !28
  %3 = load i32, ptr %2, align 4, !tbaa !28
  %4 = icmp sgt i32 %3, 0
  %5 = zext i1 %4 to i8
  ret i8 %5
}

; Function Attrs: mustprogress uwtable
define noundef ptr @_ZN6icu_7713LocDataParser5parseEPDsi(ptr noundef nonnull align 8 dereferenceable(48) %0, ptr noundef %1, i32 noundef %2) #2 align 2 {
  %4 = alloca ptr, align 8
  %5 = alloca ptr, align 8
  %6 = alloca ptr, align 8
  %7 = alloca i32, align 4
  store ptr %0, ptr %5, align 8, !tbaa !22
  store ptr %1, ptr %6, align 8, !tbaa !16
  store i32 %2, ptr %7, align 4, !tbaa !12
  %8 = load ptr, ptr %5, align 8
  %9 = getelementptr inbounds nuw %"class.icu_77::LocDataParser", ptr %8, i32 0, i32 5
  %10 = load ptr, ptr %9, align 8, !tbaa !24
  %11 = load i32, ptr %10, align 4, !tbaa !28
  %12 = call noundef signext i8 @_ZL9U_FAILURE10UErrorCode(i32 noundef %11)
  %13 = icmp ne i8 %12, 0
  br i1 %13, label %14, label %20

14:                                               ; preds = %3
  %15 = load ptr, ptr %6, align 8, !tbaa !16
  %16 = icmp ne ptr %15, null
  br i1 %16, label %17, label %19

17:                                               ; preds = %14
  %18 = load ptr, ptr %6, align 8, !tbaa !16
  call void @uprv_free_77(ptr noundef %18)
  br label %19

19:                                               ; preds = %17, %14
  store ptr null, ptr %4, align 8
  br label %60

20:                                               ; preds = %3
  %21 = getelementptr inbounds nuw %"class.icu_77::LocDataParser", ptr %8, i32 0, i32 4
  %22 = load ptr, ptr %21, align 8, !tbaa !30
  %23 = getelementptr inbounds nuw %struct.UParseError, ptr %22, i32 0, i32 0
  store i32 0, ptr %23, align 4, !tbaa !31
  %24 = getelementptr inbounds nuw %"class.icu_77::LocDataParser", ptr %8, i32 0, i32 4
  %25 = load ptr, ptr %24, align 8, !tbaa !30
  %26 = getelementptr inbounds nuw %struct.UParseError, ptr %25, i32 0, i32 1
  store i32 -1, ptr %26, align 4, !tbaa !33
  %27 = getelementptr inbounds nuw %"class.icu_77::LocDataParser", ptr %8, i32 0, i32 4
  %28 = load ptr, ptr %27, align 8, !tbaa !30
  %29 = getelementptr inbounds nuw %struct.UParseError, ptr %28, i32 0, i32 3
  %30 = getelementptr inbounds [16 x i16], ptr %29, i64 0, i64 0
  store i16 0, ptr %30, align 4, !tbaa !34
  %31 = getelementptr inbounds nuw %"class.icu_77::LocDataParser", ptr %8, i32 0, i32 4
  %32 = load ptr, ptr %31, align 8, !tbaa !30
  %33 = getelementptr inbounds nuw %struct.UParseError, ptr %32, i32 0, i32 2
  %34 = getelementptr inbounds [16 x i16], ptr %33, i64 0, i64 0
  store i16 0, ptr %34, align 4, !tbaa !34
  %35 = load ptr, ptr %6, align 8, !tbaa !16
  %36 = icmp eq ptr %35, null
  br i1 %36, label %37, label %40

37:                                               ; preds = %20
  %38 = getelementptr inbounds nuw %"class.icu_77::LocDataParser", ptr %8, i32 0, i32 5
  %39 = load ptr, ptr %38, align 8, !tbaa !24
  store i32 1, ptr %39, align 4, !tbaa !28
  store ptr null, ptr %4, align 8
  br label %60

40:                                               ; preds = %20
  %41 = load i32, ptr %7, align 4, !tbaa !12
  %42 = icmp sle i32 %41, 0
  br i1 %42, label %43, label %47

43:                                               ; preds = %40
  %44 = getelementptr inbounds nuw %"class.icu_77::LocDataParser", ptr %8, i32 0, i32 5
  %45 = load ptr, ptr %44, align 8, !tbaa !24
  store i32 1, ptr %45, align 4, !tbaa !28
  %46 = load ptr, ptr %6, align 8, !tbaa !16
  call void @uprv_free_77(ptr noundef %46)
  store ptr null, ptr %4, align 8
  br label %60

47:                                               ; preds = %40
  %48 = load ptr, ptr %6, align 8, !tbaa !16
  %49 = getelementptr inbounds nuw %"class.icu_77::LocDataParser", ptr %8, i32 0, i32 0
  store ptr %48, ptr %49, align 8, !tbaa !35
  %50 = getelementptr inbounds nuw %"class.icu_77::LocDataParser", ptr %8, i32 0, i32 0
  %51 = load ptr, ptr %50, align 8, !tbaa !35
  %52 = load i32, ptr %7, align 4, !tbaa !12
  %53 = sext i32 %52 to i64
  %54 = getelementptr inbounds i16, ptr %51, i64 %53
  %55 = getelementptr inbounds nuw %"class.icu_77::LocDataParser", ptr %8, i32 0, i32 1
  store ptr %54, ptr %55, align 8, !tbaa !36
  %56 = load ptr, ptr %6, align 8, !tbaa !16
  %57 = getelementptr inbounds nuw %"class.icu_77::LocDataParser", ptr %8, i32 0, i32 2
  store ptr %56, ptr %57, align 8, !tbaa !37
  %58 = getelementptr inbounds nuw %"class.icu_77::LocDataParser", ptr %8, i32 0, i32 3
  store i16 -1, ptr %58, align 8, !tbaa !38
  %59 = call noundef ptr @_ZN6icu_7713LocDataParser7doParseEv(ptr noundef nonnull align 8 dereferenceable(48) %8)
  store ptr %59, ptr %4, align 8
  br label %60

60:                                               ; preds = %47, %43, %37, %19
  %61 = load ptr, ptr %4, align 8
  ret ptr %61
}