; Function Attrs: mustprogress uwtable
define noundef ptr @_ZN6icu_7713LocDataParser5parseEPDsi(ptr noundef nonnull align 8 captures(none) dereferenceable(48) %0, ptr noundef %1, i32 noundef %2) local_unnamed_addr #3 align 2 {
  %4 = getelementptr inbounds nuw i8, ptr %0, i64 40
  %5 = load ptr, ptr %4, align 8, !tbaa !12
  %6 = load i32, ptr %5, align 4, !tbaa !19
  %7 = icmp slt i32 %6, 1
  br i1 %7, label %10, label %8

8:                                                ; preds = %3
  %.not11 = icmp eq ptr %1, null
  br i1 %.not11, label %28, label %9

9:                                                ; preds = %8
  tail call void @uprv_free_77(ptr noundef nonnull %1)
  br label %28

10:                                               ; preds = %3
  %11 = getelementptr inbounds nuw i8, ptr %0, i64 32
  %12 = load ptr, ptr %11, align 8, !tbaa !21
  store i32 0, ptr %12, align 4, !tbaa !22
  %13 = getelementptr inbounds nuw i8, ptr %12, i64 4
  store i32 -1, ptr %13, align 4, !tbaa !25
  %14 = getelementptr inbounds nuw i8, ptr %12, i64 40
  store i16 0, ptr %14, align 4, !tbaa !26
  %15 = getelementptr inbounds nuw i8, ptr %12, i64 8
  store i16 0, ptr %15, align 4, !tbaa !26
  %16 = icmp eq ptr %1, null
  br i1 %16, label %17, label %18

17:                                               ; preds = %10
  store i32 1, ptr %5, align 4, !tbaa !19
  br label %28

18:                                               ; preds = %10
  %19 = icmp slt i32 %2, 1
  br i1 %19, label %20, label %21

20:                                               ; preds = %18
  store i32 1, ptr %5, align 4, !tbaa !19
  tail call void @uprv_free_77(ptr noundef nonnull %1)
  br label %28

21:                                               ; preds = %18
  store ptr %1, ptr %0, align 8, !tbaa !27
  %22 = zext nneg i32 %2 to i64
  %23 = getelementptr inbounds nuw i16, ptr %1, i64 %22
  %24 = getelementptr inbounds nuw i8, ptr %0, i64 8
  store ptr %23, ptr %24, align 8, !tbaa !28
  %25 = getelementptr inbounds nuw i8, ptr %0, i64 16
  store ptr %1, ptr %25, align 8, !tbaa !29
  %26 = getelementptr inbounds nuw i8, ptr %0, i64 24
  store i16 -1, ptr %26, align 8, !tbaa !30
  %27 = tail call noundef ptr @_ZN6icu_7713LocDataParser7doParseEv(ptr noundef nonnull align 8 dereferenceable(48) %0)
  br label %28

28:                                               ; preds = %8, %9, %21, %20, %17
  %.0 = phi ptr [ null, %17 ], [ null, %20 ], [ %27, %21 ], [ null, %9 ], [ null, %8 ]
  ret ptr %.0
}